Certificate:
    Data:
        Version: 3 (0x2)
        Serial Number: 1 (0x1)
    Signature Algorithm: sha1WithRSAEncryption
        Issuer: DC=org, DC=simple, O=Simple Inc, OU=Simple Signing CA, CN=Simple Signing CA
        Validity
            Not Before: Nov 29 22:07:23 2020 GMT
            Not After : Nov 29 22:07:23 2022 GMT
        Subject: DC=org, DC=simple, O=Simple Inc, CN=Fred Flintstone
        Subject Public Key Info:
            Public Key Algorithm: rsaEncryption
                Public-Key: (2048 bit)
                Modulus:
                    00:e6:b0:a7:2e:d7:7e:3a:e3:e7:3f:0b:00:e8:77:
                    dd:8b:49:8a:5f:9e:f6:be:ad:7e:55:10:22:89:20:
                    7d:58:a1:ee:43:7c:79:74:c2:c9:f0:50:24:68:00:
                    69:54:28:2f:30:93:b3:30:ae:03:4b:89:76:f6:9e:
                    8c:f6:06:46:7f:4f:54:1f:97:73:9b:d4:a3:b6:8e:
                    f9:94:42:43:2b:00:8f:95:1b:be:16:ae:12:3b:3e:
                    3f:b8:5b:ad:b1:32:bf:51:5b:d2:20:cb:e8:bb:24:
                    38:50:a5:59:72:3f:8e:19:69:0e:80:5d:d7:b1:7f:
                    59:99:2c:af:1b:75:b4:96:78:0d:f5:b2:e5:dd:43:
                    d2:39:9f:87:e4:73:56:61:e1:bb:00:73:f4:c9:47:
                    ee:69:0a:d2:dd:92:b2:e1:87:80:a8:81:f6:75:2c:
                    52:ce:b6:68:c9:75:82:08:37:9b:29:4d:7d:b0:05:
                    ea:a0:27:b5:c6:bc:59:9d:93:45:29:54:68:fb:9b:
                    3c:17:d6:85:57:05:ad:44:64:52:24:8c:53:72:40:
                    2d:35:97:d1:2d:ed:88:9e:73:8e:97:ed:a2:07:c6:
                    e9:97:b6:8d:dd:96:c4:ac:9e:00:37:13:4f:f2:40:
                    57:0d:f7:74:cc:e7:4f:17:22:3b:61:00:54:6a:b9:
                    7b:d3
                Exponent: 65537 (0x10001)
        X509v3 extensions:
            X509v3 Key Usage: critical
                Digital Signature, Key Encipherment
            X509v3 Basic Constraints: 
                CA:FALSE
            X509v3 Extended Key Usage: 
                E-mail Protection, TLS Web Client Authentication
            X509v3 Subject Key Identifier: 
                52:0E:F6:C6:1C:34:5D:1C:A2:6A:DE:F7:9A:1B:CB:3B:7C:8E:43:83
            X509v3 Authority Key Identifier: 
                keyid:58:7F:D5:36:4A:0A:A7:5C:82:4A:BB:28:F6:58:7C:5B:FB:91:98:E2

            X509v3 Subject Alternative Name: 
                email:fred@simple.org
    Signature Algorithm: sha1WithRSAEncryption
         a4:74:d0:5b:e3:00:55:7d:9c:15:bf:43:8b:06:0b:38:0f:2a:
         f6:7a:f6:53:47:0e:2d:73:e5:41:95:7e:0c:b6:d8:ec:81:ad:
         33:fb:5f:08:da:d3:6e:1a:96:85:f1:24:35:fc:7b:85:52:cf:
         76:39:45:88:96:d2:cf:79:e2:19:bf:88:1a:76:b8:a7:84:6d:
         66:3c:86:a6:3b:bf:10:71:18:40:82:06:f8:5f:1c:70:90:03:
         c9:a4:cc:f0:3a:74:8d:ae:2c:16:f9:b8:f2:c0:e1:e7:f8:c9:
         ed:7b:cc:7c:0c:f0:4b:85:7a:92:93:e4:e9:34:ef:5f:b1:1e:
         96:90:14:1f:0b:f9:90:7d:6b:cd:9f:52:da:56:d6:39:f7:b5:
         95:95:b1:a3:b2:c6:15:c3:09:48:3d:a5:50:eb:ef:43:d0:0e:
         c3:ab:70:4c:9b:c1:5f:a2:28:4b:8e:bd:59:9e:c2:d8:6f:f5:
         69:18:ad:7c:96:0e:34:bf:a6:ff:66:43:23:51:e8:f6:5c:3d:
         8d:ee:04:97:eb:0a:1b:f5:d5:20:fb:7a:8e:b8:98:19:65:5c:
         8a:b4:bf:4d:0f:48:52:92:35:08:8f:dc:c0:ff:1d:76:f3:e9:
         fa:75:da:b3:54:2c:04:e1:0d:6a:87:ff:73:dd:15:33:8f:84:
         59:af:9a:09
-----BEGIN CERTIFICATE-----
MIID6zCCAtOgAwIBAgIBATANBgkqhkiG9w0BAQUFADB6MRMwEQYKCZImiZPyLGQB
GRYDb3JnMRYwFAYKCZImiZPyLGQBGRYGc2ltcGxlMRMwEQYDVQQKDApTaW1wbGUg
SW5jMRowGAYDVQQLDBFTaW1wbGUgU2lnbmluZyBDQTEaMBgGA1UEAwwRU2ltcGxl
IFNpZ25pbmcgQ0EwHhcNMjAxMTI5MjIwNzIzWhcNMjIxMTI5MjIwNzIzWjBcMRMw
EQYKCZImiZPyLGQBGRYDb3JnMRYwFAYKCZImiZPyLGQBGRYGc2ltcGxlMRMwEQYD
VQQKDApTaW1wbGUgSW5jMRgwFgYDVQQDDA9GcmVkIEZsaW50c3RvbmUwggEiMA0G
CSqGSIb3DQEBAQUAA4IBDwAwggEKAoIBAQDmsKcu13464+c/CwDod92LSYpfnva+
rX5VECKJIH1Yoe5DfHl0wsnwUCRoAGlUKC8wk7MwrgNLiXb2noz2BkZ/T1Qfl3Ob
1KO2jvmUQkMrAI+VG74WrhI7Pj+4W62xMr9RW9Igy+i7JDhQpVlyP44ZaQ6AXdex
f1mZLK8bdbSWeA31suXdQ9I5n4fkc1Zh4bsAc/TJR+5pCtLdkrLhh4CogfZ1LFLO
tmjJdYIIN5spTX2wBeqgJ7XGvFmdk0UpVGj7mzwX1oVXBa1EZFIkjFNyQC01l9Et
7Yiec46X7aIHxumXto3dlsSsngA3E0/yQFcN93TM508XIjthAFRquXvTAgMBAAGj
gZkwgZYwDgYDVR0PAQH/BAQDAgWgMAkGA1UdEwQCMAAwHQYDVR0lBBYwFAYIKwYB
BQUHAwQGCCsGAQUFBwMCMB0GA1UdDgQWBBRSDvbGHDRdHKJq3veaG8s7fI5DgzAf
BgNVHSMEGDAWgBRYf9U2SgqnXIJKuyj2WHxb+5GY4jAaBgNVHREEEzARgQ9mcmVk
QHNpbXBsZS5vcmcwDQYJKoZIhvcNAQEFBQADggEBAKR00FvjAFV9nBW/Q4sGCzgP
KvZ69lNHDi1z5UGVfgy22OyBrTP7Xwja024aloXxJDX8e4VSz3Y5RYiW0s954hm/
iBp2uKeEbWY8hqY7vxBxGECCBvhfHHCQA8mkzPA6dI2uLBb5uPLA4ef4ye17zHwM
8EuFepKT5Ok071+xHpaQFB8L+ZB9a82fUtpW1jn3tZWVsaOyxhXDCUg9pVDr70PQ
DsOrcEybwV+iKEuOvVmewthv9WkYrXyWDjS/pv9mQyNR6PZcPY3uBJfrChv11SD7
eo64mBllXIq0v00PSFKSNQiP3MD/HXbz6fp12rNULAThDWqH/3PdFTOPhFmvmgk=
-----END CERTIFICATE-----
