Certificate:
    Data:
        Version: 3 (0x2)
        Serial Number: 2 (0x2)
    Signature Algorithm: sha1WithRSAEncryption
        Issuer: DC=org, DC=simple, O=Simple Inc, OU=Simple Signing CA, CN=Simple Signing CA
        Validity
            Not Before: Nov 29 22:09:48 2020 GMT
            Not After : Nov 29 22:09:48 2022 GMT
        Subject: DC=org, DC=simple, O=Simple Inc, CN=www.simple.org
        Subject Public Key Info:
            Public Key Algorithm: rsaEncryption
                Public-Key: (2048 bit)
                Modulus:
                    00:9a:fd:53:0b:7c:98:53:02:ef:18:74:92:70:95:
                    f2:2d:55:35:34:8d:b4:1d:2e:ba:9a:fd:3c:6a:b8:
                    b3:1b:d4:40:72:78:14:cc:28:69:44:4c:77:7d:cc:
                    fd:3a:9e:10:d1:2b:d2:64:e0:5c:f9:b9:8d:8d:42:
                    58:7b:df:23:45:5b:07:4f:a0:06:56:78:a6:80:f4:
                    d3:e3:78:fa:9f:ce:95:02:1c:62:cf:e6:9a:21:fc:
                    0f:55:00:ff:b5:26:b8:76:b7:e3:95:9c:b7:5e:9d:
                    7d:a9:4c:5b:ee:98:86:ff:a8:67:b2:25:c0:7e:9e:
                    18:bc:84:98:6c:bb:4e:9b:5c:bc:7e:b6:5f:61:e3:
                    19:01:66:0d:49:5b:7c:5d:97:8b:58:16:88:33:21:
                    87:2b:42:50:ee:eb:65:5c:de:ca:8e:c2:67:4d:09:
                    cb:b3:af:39:75:f9:0e:c3:18:91:45:8a:2c:0c:76:
                    d5:54:70:30:a7:cc:c4:0d:a0:6b:ff:a3:a0:7c:e3:
                    6f:ec:cf:de:b1:56:a8:e4:91:b7:a0:8a:c2:30:6d:
                    63:3f:13:b0:be:5c:26:13:be:c0:53:da:b2:1d:16:
                    57:99:ea:a2:ed:8b:2c:cb:74:f9:12:42:09:0d:58:
                    d2:38:0e:81:0c:69:4d:61:ba:66:b1:68:0b:f8:2e:
                    4d:43
                Exponent: 65537 (0x10001)
        X509v3 extensions:
            X509v3 Key Usage: critical
                Digital Signature, Key Encipherment
            X509v3 Basic Constraints: 
                CA:FALSE
            X509v3 Extended Key Usage: 
                TLS Web Server Authentication, TLS Web Client Authentication
            X509v3 Subject Key Identifier: 
                57:2D:F3:3A:82:34:BF:57:CF:A2:46:A9:97:4D:F4:03:3C:4D:12:D3
            X509v3 Authority Key Identifier: 
                keyid:58:7F:D5:36:4A:0A:A7:5C:82:4A:BB:28:F6:58:7C:5B:FB:91:98:E2

            X509v3 Subject Alternative Name: 
                DNS:yourdomain.tld
    Signature Algorithm: sha1WithRSAEncryption
         46:b6:f3:71:cd:5b:ea:25:eb:73:14:ed:ac:17:05:b9:e2:a6:
         b3:28:24:d2:3c:b2:2a:58:6d:17:97:78:63:8a:9f:40:ea:22:
         74:b3:4f:62:b6:f6:34:13:67:00:fb:00:df:5e:98:64:12:44:
         dc:4b:99:1b:92:28:4c:19:cc:d0:30:53:f3:57:26:4d:d3:41:
         65:e4:e8:95:e4:86:f7:ee:ac:69:63:21:b0:b9:33:fe:b4:b7:
         29:bd:c8:c1:f6:b3:3d:30:39:98:c2:d6:03:da:3d:41:56:2c:
         f8:14:b2:60:76:b6:18:59:00:93:9a:94:3f:51:2c:dc:30:fd:
         cd:31:21:7e:89:09:37:99:42:5b:fe:96:54:45:16:f2:f9:e5:
         86:14:ec:00:88:81:c9:5c:7b:a4:d8:d0:a0:ca:b2:6c:f8:db:
         b2:da:b0:b1:9c:8a:33:ee:6c:17:b2:61:46:ee:3f:7e:90:34:
         51:a6:b4:5e:24:7e:92:69:a8:06:bf:47:04:3c:7b:2a:3b:43:
         bc:94:dd:f3:77:5d:8a:ea:ce:7a:4f:9c:cd:f5:3a:02:e0:17:
         7a:09:35:42:24:a8:0c:5d:cb:ef:9c:16:bc:3a:0e:ff:03:23:
         8f:14:4c:3b:36:dc:f4:35:06:71:aa:ac:a5:26:4e:88:32:71:
         a2:3c:b1:bc
-----BEGIN CERTIFICATE-----
MIID6TCCAtGgAwIBAgIBAjANBgkqhkiG9w0BAQUFADB6MRMwEQYKCZImiZPyLGQB
GRYDb3JnMRYwFAYKCZImiZPyLGQBGRYGc2ltcGxlMRMwEQYDVQQKDApTaW1wbGUg
SW5jMRowGAYDVQQLDBFTaW1wbGUgU2lnbmluZyBDQTEaMBgGA1UEAwwRU2ltcGxl
IFNpZ25pbmcgQ0EwHhcNMjAxMTI5MjIwOTQ4WhcNMjIxMTI5MjIwOTQ4WjBbMRMw
EQYKCZImiZPyLGQBGRYDb3JnMRYwFAYKCZImiZPyLGQBGRYGc2ltcGxlMRMwEQYD
VQQKDApTaW1wbGUgSW5jMRcwFQYDVQQDDA53d3cuc2ltcGxlLm9yZzCCASIwDQYJ
KoZIhvcNAQEBBQADggEPADCCAQoCggEBAJr9Uwt8mFMC7xh0knCV8i1VNTSNtB0u
upr9PGq4sxvUQHJ4FMwoaURMd33M/TqeENEr0mTgXPm5jY1CWHvfI0VbB0+gBlZ4
poD00+N4+p/OlQIcYs/mmiH8D1UA/7UmuHa345Wct16dfalMW+6Yhv+oZ7IlwH6e
GLyEmGy7TptcvH62X2HjGQFmDUlbfF2Xi1gWiDMhhytCUO7rZVzeyo7CZ00Jy7Ov
OXX5DsMYkUWKLAx21VRwMKfMxA2ga/+joHzjb+zP3rFWqOSRt6CKwjBtYz8TsL5c
JhO+wFPash0WV5nqou2LLMt0+RJCCQ1Y0jgOgQxpTWG6ZrFoC/guTUMCAwEAAaOB
mDCBlTAOBgNVHQ8BAf8EBAMCBaAwCQYDVR0TBAIwADAdBgNVHSUEFjAUBggrBgEF
BQcDAQYIKwYBBQUHAwIwHQYDVR0OBBYEFFct8zqCNL9Xz6JGqZdN9AM8TRLTMB8G
A1UdIwQYMBaAFFh/1TZKCqdcgkq7KPZYfFv7kZjiMBkGA1UdEQQSMBCCDnlvdXJk
b21haW4udGxkMA0GCSqGSIb3DQEBBQUAA4IBAQBGtvNxzVvqJetzFO2sFwW54qaz
KCTSPLIqWG0Xl3hjip9A6iJ0s09itvY0E2cA+wDfXphkEkTcS5kbkihMGczQMFPz
VyZN00Fl5OiV5Ib37qxpYyGwuTP+tLcpvcjB9rM9MDmYwtYD2j1BViz4FLJgdrYY
WQCTmpQ/USzcMP3NMSF+iQk3mUJb/pZURRby+eWGFOwAiIHJXHuk2NCgyrJs+Nuy
2rCxnIoz7mwXsmFG7j9+kDRRprReJH6SaagGv0cEPHsqO0O8lN3zd12K6s56T5zN
9ToC4Bd6CTVCJKgMXcvvnBa8Og7/AyOPFEw7Ntz0NQZxqqylJk6IMnGiPLG8
-----END CERTIFICATE-----
