Certificate:
    Data:
        Version: 3 (0x2)
        Serial Number: 2 (0x2)
    Signature Algorithm: sha1WithRSAEncryption
        Issuer: DC=org, DC=simple, O=Simple Inc, OU=Simple Root CA, CN=Simple Root CA
        Validity
            Not Before: Nov 29 22:04:17 2020 GMT
            Not After : Nov 29 22:04:17 2030 GMT
        Subject: DC=org, DC=simple, O=Simple Inc, OU=Simple Signing CA, CN=Simple Signing CA
        Subject Public Key Info:
            Public Key Algorithm: rsaEncryption
                Public-Key: (2048 bit)
                Modulus:
                    00:c7:a5:6b:5f:e9:d2:39:13:01:ee:4e:3e:0f:63:
                    00:f1:89:4a:92:ea:72:60:55:96:56:27:7a:47:2e:
                    d3:ce:9e:bd:24:1d:ae:c3:df:4d:ed:a9:59:89:d7:
                    63:05:e8:5e:4e:ab:c6:b7:04:e4:46:53:29:f8:82:
                    e8:63:b6:47:a3:5a:a3:12:4f:11:7e:f9:6e:96:28:
                    2c:1c:b7:87:57:b4:44:39:bf:1a:84:b1:cb:5d:61:
                    30:ee:93:70:6a:05:39:15:f1:f4:4a:03:11:48:15:
                    1e:73:8d:39:47:20:30:0b:2a:ac:af:10:6f:0f:b2:
                    49:63:d0:30:94:03:82:ab:7a:9c:52:ae:b0:3a:20:
                    92:d8:cf:5a:ca:c3:8b:91:5e:1e:0c:02:40:a4:59:
                    f4:8c:be:1e:4c:6c:2c:63:dd:38:a8:87:9b:6d:f5:
                    21:97:a8:ec:4a:fb:35:91:e8:aa:80:96:56:74:7e:
                    28:24:e6:0e:c3:75:12:a2:ec:b0:91:aa:84:60:40:
                    39:76:2c:17:a5:6f:22:13:da:cc:7c:a6:b6:fc:30:
                    8a:98:21:95:a4:10:ac:33:3c:39:fc:02:64:85:80:
                    b6:0e:ec:10:a9:ad:17:50:d8:ff:78:e5:ad:24:82:
                    ab:e9:90:21:a3:97:54:77:62:e9:0e:e5:88:1e:2d:
                    54:53
                Exponent: 65537 (0x10001)
        X509v3 extensions:
            X509v3 Key Usage: critical
                Certificate Sign, CRL Sign
            X509v3 Basic Constraints: critical
                CA:TRUE, pathlen:0
            X509v3 Subject Key Identifier: 
                58:7F:D5:36:4A:0A:A7:5C:82:4A:BB:28:F6:58:7C:5B:FB:91:98:E2
            X509v3 Authority Key Identifier: 
                keyid:47:58:C2:48:98:F2:3D:FE:22:24:0D:BE:B2:9C:E6:93:36:60:BD:24

    Signature Algorithm: sha1WithRSAEncryption
         43:33:db:70:6e:8b:03:b9:98:2c:e4:c9:aa:08:de:6d:44:b8:
         ee:b3:2e:99:eb:4f:7e:83:44:13:68:3f:86:2b:43:bc:20:64:
         93:bb:cc:c5:c6:ff:c8:53:f0:e1:27:7f:1b:99:bb:54:b5:de:
         e4:01:85:d5:c7:83:26:8d:95:a8:2c:75:40:91:bc:05:a5:c7:
         d2:68:83:b8:28:0a:38:a1:4f:0b:e6:9a:b3:73:41:bf:e6:8c:
         3a:e7:c6:36:a0:34:0b:21:3a:5e:c8:07:48:cd:15:4b:de:5e:
         9e:d4:db:bb:07:85:c6:3b:63:1e:76:63:12:40:ba:5f:1d:d4:
         d9:a1:5d:f4:47:44:6b:56:1a:bd:17:78:e9:6e:35:01:bc:6f:
         92:4e:c8:92:f6:96:87:46:1a:44:65:79:c3:c5:3b:9b:7f:10:
         42:a9:34:f1:8d:67:a1:3f:b6:ca:23:11:a8:cc:2a:e3:15:b1:
         5b:05:44:04:55:b1:89:f6:c3:e0:f9:af:a1:0e:6a:e9:86:e3:
         0c:9e:0d:bc:7b:e7:28:10:4a:e9:79:93:99:a6:81:dc:80:5a:
         bd:47:6c:18:59:98:b4:7b:17:43:df:10:05:05:80:f7:42:16:
         14:9b:a7:c6:1e:7c:b5:00:ce:01:5e:57:75:be:06:43:3b:85:
         41:0d:aa:b3
-----BEGIN CERTIFICATE-----
MIIDzzCCAregAwIBAgIBAjANBgkqhkiG9w0BAQUFADB0MRMwEQYKCZImiZPyLGQB
GRYDb3JnMRYwFAYKCZImiZPyLGQBGRYGc2ltcGxlMRMwEQYDVQQKDApTaW1wbGUg
SW5jMRcwFQYDVQQLDA5TaW1wbGUgUm9vdCBDQTEXMBUGA1UEAwwOU2ltcGxlIFJv
b3QgQ0EwHhcNMjAxMTI5MjIwNDE3WhcNMzAxMTI5MjIwNDE3WjB6MRMwEQYKCZIm
iZPyLGQBGRYDb3JnMRYwFAYKCZImiZPyLGQBGRYGc2ltcGxlMRMwEQYDVQQKDApT
aW1wbGUgSW5jMRowGAYDVQQLDBFTaW1wbGUgU2lnbmluZyBDQTEaMBgGA1UEAwwR
U2ltcGxlIFNpZ25pbmcgQ0EwggEiMA0GCSqGSIb3DQEBAQUAA4IBDwAwggEKAoIB
AQDHpWtf6dI5EwHuTj4PYwDxiUqS6nJgVZZWJ3pHLtPOnr0kHa7D303tqVmJ12MF
6F5Oq8a3BORGUyn4guhjtkejWqMSTxF++W6WKCwct4dXtEQ5vxqEsctdYTDuk3Bq
BTkV8fRKAxFIFR5zjTlHIDALKqyvEG8Psklj0DCUA4KrepxSrrA6IJLYz1rKw4uR
Xh4MAkCkWfSMvh5MbCxj3Tioh5tt9SGXqOxK+zWR6KqAllZ0figk5g7DdRKi7LCR
qoRgQDl2LBelbyIT2sx8prb8MIqYIZWkEKwzPDn8AmSFgLYO7BCprRdQ2P945a0k
gqvpkCGjl1R3YukO5YgeLVRTAgMBAAGjZjBkMA4GA1UdDwEB/wQEAwIBBjASBgNV
HRMBAf8ECDAGAQH/AgEAMB0GA1UdDgQWBBRYf9U2SgqnXIJKuyj2WHxb+5GY4jAf
BgNVHSMEGDAWgBRHWMJImPI9/iIkDb6ynOaTNmC9JDANBgkqhkiG9w0BAQUFAAOC
AQEAQzPbcG6LA7mYLOTJqgjebUS47rMumetPfoNEE2g/hitDvCBkk7vMxcb/yFPw
4Sd/G5m7VLXe5AGF1ceDJo2VqCx1QJG8BaXH0miDuCgKOKFPC+aas3NBv+aMOufG
NqA0CyE6XsgHSM0VS95entTbuweFxjtjHnZjEkC6Xx3U2aFd9EdEa1YavRd46W41
Abxvkk7IkvaWh0YaRGV5w8U7m38QQqk08Y1noT+2yiMRqMwq4xWxWwVEBFWxifbD
4PmvoQ5q6YbjDJ4NvHvnKBBK6XmTmaaB3IBavUdsGFmYtHsXQ98QBQWA90IWFJun
xh58tQDOAV5Xdb4GQzuFQQ2qsw==
-----END CERTIFICATE-----
